target datalayout = "e-m:e-p270:32:32-p271:32:32-p272:64:64-i64:64-i128:128-f80:128-n8:16:32:64-S128"
target triple = "x86_64-pc-linux-gnu"

%"class.icu_77::UVector32" = type { %"class.icu_77::UObject", i32, i32, i32, ptr }
%"class.icu_77::UObject" = type { ptr }
%"class.icu_77::RuleBasedBreakIterator" = type <{ %"class.icu_77::BreakIterator", %struct.UText, ptr, i32, i32, i32, [4 x i8], ptr, ptr, ptr, ptr, i32, [4 x i8], ptr, %"class.icu_77::UCharCharacterIterator", i8, [7 x i8], ptr, i8, [7 x i8] }>
%"class.icu_77::BreakIterator" = type { %"class.icu_77::UObject", ptr, ptr, ptr }
%struct.UText = type { i32, i32, i32, i32, i64, i32, i32, i64, i32, i32, ptr, ptr, ptr, ptr, ptr, ptr, ptr, ptr, i64, i32, i32, i64, i32, i32 }
%"class.icu_77::UCharCharacterIterator" = type { %"class.icu_77::CharacterIterator", ptr }
%"class.icu_77::CharacterIterator" = type { %"class.icu_77::ForwardCharacterIterator", i32, i32, i32, i32 }
%"class.icu_77::ForwardCharacterIterator" = type { %"class.icu_77::UObject" }
%"class.icu_77::RuleBasedBreakIterator::BreakCache" = type { ptr, ptr, i32, i32, i32, i32, [128 x i32], [128 x i16], %"class.icu_77::UVector32" }

; Function Attrs: mustprogress nounwind uwtable
define noundef i32 @_ZN6icu_7722RuleBasedBreakIterator10BreakCache7currentEv(ptr noundef nonnull align 8 dereferenceable(832) %0) #2 align 2 {
  %2 = alloca ptr, align 8
  store ptr %0, ptr %2, align 8, !tbaa !81
  %3 = load ptr, ptr %2, align 8
  %4 = getelementptr inbounds nuw %"class.icu_77::RuleBasedBreakIterator::BreakCache", ptr %3, i32 0, i32 4
  %5 = load i32, ptr %4, align 8, !tbaa !86
  %6 = getelementptr inbounds nuw %"class.icu_77::RuleBasedBreakIterator::BreakCache", ptr %3, i32 0, i32 1
  %7 = load ptr, ptr %6, align 8, !tbaa !82
  %8 = getelementptr inbounds nuw %"class.icu_77::RuleBasedBreakIterator", ptr %7, i32 0, i32 4
  store i32 %5, ptr %8, align 4, !tbaa !88
  %9 = getelementptr inbounds nuw %"class.icu_77::RuleBasedBreakIterator::BreakCache", ptr %3, i32 0, i32 7
  %10 = getelementptr inbounds nuw %"class.icu_77::RuleBasedBreakIterator::BreakCache", ptr %3, i32 0, i32 5
  %11 = load i32, ptr %10, align 4, !tbaa !87
  %12 = sext i32 %11 to i64
  %13 = getelementptr inbounds [128 x i16], ptr %9, i64 0, i64 %12
  %14 = load i16, ptr %13, align 2, !tbaa !63
  %15 = zext i16 %14 to i32
  %16 = getelementptr inbounds nuw %"class.icu_77::RuleBasedBreakIterator::BreakCache", ptr %3, i32 0, i32 1
  %17 = load ptr, ptr %16, align 8, !tbaa !82
  %18 = getelementptr inbounds nuw %"class.icu_77::RuleBasedBreakIterator", ptr %17, i32 0, i32 5
  store i32 %15, ptr %18, align 8, !tbaa !89
  %19 = getelementptr inbounds nuw %"class.icu_77::RuleBasedBreakIterator::BreakCache", ptr %3, i32 0, i32 1
  %20 = load ptr, ptr %19, align 8, !tbaa !82
  %21 = getelementptr inbounds nuw %"class.icu_77::RuleBasedBreakIterator", ptr %20, i32 0, i32 15
  store i8 0, ptr %21, align 8, !tbaa !90
  %22 = getelementptr inbounds nuw %"class.icu_77::RuleBasedBreakIterator::BreakCache", ptr %3, i32 0, i32 4
  %23 = load i32, ptr %22, align 8, !tbaa !86
  ret i32 %23
}