; Function Attrs: mustprogress nofree norecurse nosync nounwind willreturn memory(write, argmem: readwrite, inaccessiblemem: none) uwtable
define noundef i32 @_ZN6icu_7722RuleBasedBreakIterator10BreakCache7currentEv(ptr noundef nonnull readonly align 8 captures(none) dereferenceable(832) %0) local_unnamed_addr #8 align 2 {
  %2 = getelementptr inbounds nuw i8, ptr %0, i64 24
  %3 = load i32, ptr %2, align 8, !tbaa !75
  %4 = getelementptr inbounds nuw i8, ptr %0, i64 8
  %5 = load ptr, ptr %4, align 8, !tbaa !69
  %6 = getelementptr inbounds nuw i8, ptr %5, i64 188
  store i32 %3, ptr %6, align 4, !tbaa !77
  %7 = getelementptr inbounds nuw i8, ptr %0, i64 544
  %8 = getelementptr inbounds nuw i8, ptr %0, i64 28
  %9 = load i32, ptr %8, align 4, !tbaa !76
  %10 = sext i32 %9 to i64
  %11 = getelementptr inbounds [128 x i16], ptr %7, i64 0, i64 %10
  %12 = load i16, ptr %11, align 2, !tbaa !71
  %13 = zext i16 %12 to i32
  %14 = getelementptr inbounds nuw i8, ptr %5, i64 192
  store i32 %13, ptr %14, align 8, !tbaa !78
  %15 = getelementptr inbounds nuw i8, ptr %5, i64 280
  store i8 0, ptr %15, align 8, !tbaa !79
  ret i32 %3
}